; Function Attrs: nounwind uwtable
define hidden void @ByteBinary1BitSetSpans(ptr nocapture noundef readonly %0, ptr nocapture noundef readonly %1, ptr noundef %2, i32 noundef %3, ptr nocapture readnone %4, ptr nocapture readnone %5) #1 {
  %7 = alloca [4 x i32], align 16
  %8 = getelementptr inbounds i8, ptr %0, i64 16
  %9 = load ptr, ptr %8, align 8
  %10 = getelementptr inbounds i8, ptr %0, i64 32
  %11 = load i32, ptr %10, align 8
  %12 = getelementptr inbounds i8, ptr %1, i64 32
  %13 = load ptr, ptr %12, align 8
  %14 = call zeroext i8 %13(ptr noundef %2, ptr noundef nonnull %7) #6
  %.not45 = icmp eq i8 %14, 0
  br i1 %.not45, label %._crit_edge, label %.lr.ph

.lr.ph:                                           ; preds = %6
  %15 = getelementptr inbounds i8, ptr %7, i64 4
  %16 = getelementptr inbounds i8, ptr %7, i64 8
  %17 = getelementptr inbounds i8, ptr %7, i64 12
  %18 = ptrtoint ptr %9 to i64
  %19 = sext i32 %11 to i64
  %20 = getelementptr inbounds i8, ptr %0, i64 24
  br label %21

21:                                               ; preds = %.lr.ph, %67
  %22 = load i32, ptr %7, align 16
  %23 = load i32, ptr %15, align 4
  %24 = load i32, ptr %16, align 8
  %25 = sub nsw i32 %24, %22
  %26 = load i32, ptr %17, align 4
  %27 = sub nsw i32 %26, %23
  %28 = sext i32 %23 to i64
  %29 = mul nsw i64 %28, %19
  %30 = add nsw i64 %29, %18
  br label %31

31:                                               ; preds = %61, %21
  %.041.in = phi i64 [ %30, %21 ], [ %65, %61 ]
  %.040 = phi i32 [ %27, %21 ], [ %66, %61 ]
  %.041 = inttoptr i64 %.041.in to ptr
  %32 = load i32, ptr %20, align 8
  %33 = add nsw i32 %32, %22
  %34 = sdiv i32 %33, 8
  %35 = srem i32 %33, 8
  %36 = sub nsw i32 7, %35
  %37 = sext i32 %34 to i64
  %38 = getelementptr inbounds i8, ptr %.041, i64 %37
  %39 = load i8, ptr %38, align 1
  %40 = zext i8 %39 to i32
  br label %41

41:                                               ; preds = %52, %31
  %.038 = phi i32 [ %34, %31 ], [ %.139, %52 ]
  %.036 = phi i32 [ %36, %31 ], [ %58, %52 ]
  %.035 = phi i32 [ %40, %31 ], [ %57, %52 ]
  %.0 = phi i32 [ %25, %31 ], [ %59, %52 ]
  %42 = icmp slt i32 %.036, 0
  br i1 %42, label %43, label %52

43:                                               ; preds = %41
  %44 = trunc i32 %.035 to i8
  %45 = sext i32 %.038 to i64
  %46 = getelementptr inbounds i8, ptr %.041, i64 %45
  store i8 %44, ptr %46, align 1
  %47 = add nsw i32 %.038, 1
  %48 = sext i32 %47 to i64
  %49 = getelementptr inbounds i8, ptr %.041, i64 %48
  %50 = load i8, ptr %49, align 1
  %51 = zext i8 %50 to i32
  br label %52

52:                                               ; preds = %43, %41
  %.139 = phi i32 [ %47, %43 ], [ %.038, %41 ]
  %.137 = phi i32 [ 7, %43 ], [ %.036, %41 ]
  %.1 = phi i32 [ %51, %43 ], [ %.035, %41 ]
  %53 = shl nuw nsw i32 1, %.137
  %54 = xor i32 %53, -1
  %55 = and i32 %.1, %54
  %56 = shl i32 %3, %.137
  %57 = or i32 %55, %56
  %58 = add nsw i32 %.137, -1
  %59 = add nsw i32 %.0, -1
  %60 = icmp sgt i32 %.0, 1
  br i1 %60, label %41, label %61, !llvm.loop !9

61:                                               ; preds = %52
  %62 = trunc i32 %57 to i8
  %63 = sext i32 %.139 to i64
  %64 = getelementptr inbounds i8, ptr %.041, i64 %63
  store i8 %62, ptr %64, align 1
  %65 = add nsw i64 %.041.in, %19
  %66 = add i32 %.040, -1
  %.not44 = icmp eq i32 %66, 0
  br i1 %.not44, label %67, label %31, !llvm.loop !10

67:                                               ; preds = %61
  %68 = load ptr, ptr %12, align 8
  %69 = call zeroext i8 %68(ptr noundef %2, ptr noundef nonnull %7) #6
  %.not = icmp eq i8 %69, 0
  br i1 %.not, label %._crit_edge, label %21, !llvm.loop !11

._crit_edge:                                      ; preds = %67, %6
  ret void
}